target datalayout = "e-m:e-p270:32:32-p271:32:32-p272:64:64-i64:64-i128:128-f80:128-n8:16:32:64-S128"
target triple = "x86_64-pc-linux-gnu"

%"class.llvm::DWARFAcceleratorTable" = type { ptr, %"class.llvm::DWARFDataExtractor", %"class.llvm::DataExtractor" }
%"class.llvm::DWARFDataExtractor" = type { %"class.llvm::DataExtractor.base", ptr, ptr }
%"class.llvm::DataExtractor.base" = type <{ %"class.llvm::StringRef", i8, i8 }>
%"class.llvm::StringRef" = type { ptr, i64 }
%"class.llvm::DataExtractor" = type <{ %"class.llvm::StringRef", i8, i8, [6 x i8] }>
%"struct.llvm::DWARFDebugNames::Header" = type { i64, i8, i16, i32, i32, i32, i32, i32, i32, i32, %"class.llvm::SmallString" }
%"class.llvm::SmallString" = type { %"class.llvm::SmallVector.73" }
%"class.llvm::SmallVector.73" = type { %"class.llvm::SmallVectorImpl.74", %"struct.llvm::SmallVectorStorage.78" }
%"class.llvm::SmallVectorImpl.74" = type { %"class.llvm::SmallVectorTemplateBase.75" }
%"class.llvm::SmallVectorTemplateBase.75" = type { %"class.llvm::SmallVectorTemplateCommon.76" }
%"class.llvm::SmallVectorTemplateCommon.76" = type { %"class.llvm::SmallVectorBase.77" }
%"class.llvm::SmallVectorBase.77" = type { ptr, i64, i64 }
%"struct.llvm::SmallVectorStorage.78" = type { [8 x i8] }
%"class.llvm::DWARFDebugNames::NameIndex" = type { %"class.llvm::DenseSet", %"struct.llvm::DWARFDebugNames::Header", ptr, i64, %"struct.llvm::DWARFDebugNames::DWARFDebugNamesOffsets" }
%"class.llvm::DenseSet" = type { %"class.llvm::detail::DenseSetImpl" }
%"class.llvm::detail::DenseSetImpl" = type { %"class.llvm::DenseMap" }
%"class.llvm::DenseMap" = type <{ ptr, i32, i32, i32, [4 x i8] }>
%"struct.llvm::DWARFDebugNames::DWARFDebugNamesOffsets" = type { i64, i64, i64, i64, i64, i64 }

; Function Attrs: mustprogress nounwind uwtable
define dso_local noundef i32 @_ZNK4llvm15DWARFDebugNames9NameIndex19getBucketArrayEntryEj(ptr noundef nonnull align 8 dereferenceable(160) %0, i32 noundef %1) #0 align 2 {
  %3 = alloca ptr, align 8
  %4 = alloca i32, align 4
  %5 = alloca i64, align 8
  store ptr %0, ptr %3, align 8
  store i32 %1, ptr %4, align 4
  %6 = load ptr, ptr %3, align 8
  %7 = getelementptr inbounds nuw %"class.llvm::DWARFDebugNames::NameIndex", ptr %6, i32 0, i32 4
  %8 = getelementptr inbounds nuw %"struct.llvm::DWARFDebugNames::DWARFDebugNamesOffsets", ptr %7, i32 0, i32 1
  %9 = load i64, ptr %8, align 8
  %10 = load i32, ptr %4, align 4
  %11 = mul i32 4, %10
  %12 = zext i32 %11 to i64
  %13 = add i64 %9, %12
  store i64 %13, ptr %5, align 8
  %14 = getelementptr inbounds nuw %"class.llvm::DWARFDebugNames::NameIndex", ptr %6, i32 0, i32 2
  %15 = load ptr, ptr %14, align 8
  %16 = getelementptr inbounds nuw %"class.llvm::DWARFAcceleratorTable", ptr %15, i32 0, i32 1
  %17 = call noundef i32 @_ZNK4llvm13DataExtractor6getU32EPmPNS_5ErrorE(ptr noundef nonnull align 8 dereferenceable(18) %16, ptr noundef %5, ptr noundef null)
  ret i32 %17
}