; Function Attrs: mustprogress nounwind uwtable
define dso_local noundef i32 @_ZNK4llvm15DWARFDebugNames9NameIndex19getBucketArrayEntryEj(ptr noundef nonnull readonly align 8 captures(none) dereferenceable(160) %0, i32 noundef %1) local_unnamed_addr #3 align 2 {
  %3 = alloca i64, align 8
  %4 = getelementptr inbounds nuw i8, ptr %0, i64 120
  %5 = load i64, ptr %4, align 8
  %6 = shl i32 %1, 2
  %7 = zext i32 %6 to i64
  %8 = add i64 %5, %7
  store i64 %8, ptr %3, align 8
  %9 = getelementptr inbounds nuw i8, ptr %0, i64 96
  %10 = load ptr, ptr %9, align 8
  %11 = getelementptr inbounds nuw i8, ptr %10, i64 8
  %12 = call noundef i32 @_ZNK4llvm13DataExtractor6getU32EPmPNS_5ErrorE(ptr noundef nonnull align 8 dereferenceable(18) %11, ptr noundef nonnull %3, ptr noundef null) #27
  ret i32 %12
}